; ModuleID = '43/1041.c'
source_filename = "43/1041.c"
target datalayout = "e-m:e-p270:32:32-p271:32:32-p272:64:64-i64:64-f80:128-n8:16:32:64-S128"
target triple = "x86_64-pc-linux-gnu"

@.str = private unnamed_addr constant [4 x i8] c"%ld\00", align 1
@.str.1 = private unnamed_addr constant [7 x i8] c"%d %d\0A\00", align 1

; Function Attrs: noinline nounwind uwtable
define dso_local i32 @IsPrime(i32 %0) #0 {
  %2 = alloca i32, align 4
  %3 = alloca i32, align 4
  %4 = alloca i32, align 4
  %5 = alloca i32, align 4
  store i32 %0, i32* %3, align 4
  store i32 0, i32* %5, align 4
  store i32 2, i32* %4, align 4
  br label %6

6:                                                ; preds = %18, %1
  %7 = load i32, i32* %4, align 4
  %8 = load i32, i32* %3, align 4
  %9 = sdiv i32 %8, 2
  %10 = icmp slt i32 %7, %9
  br i1 %10, label %11, label %21

11:                                               ; preds = %6
  %12 = load i32, i32* %3, align 4
  %13 = load i32, i32* %4, align 4
  %14 = srem i32 %12, %13
  %15 = icmp eq i32 %14, 0
  br i1 %15, label %16, label %17

16:                                               ; preds = %11
  store i32 1, i32* %5, align 4
  br label %18

17:                                               ; preds = %11
  br label %18

18:                                               ; preds = %17, %16
  %19 = load i32, i32* %4, align 4
  %20 = add nsw i32 %19, 1
  store i32 %20, i32* %4, align 4
  br label %6

21:                                               ; preds = %6
  %22 = load i32, i32* %5, align 4
  %23 = icmp eq i32 %22, 0
  br i1 %23, label %24, label %25

24:                                               ; preds = %21
  store i32 1, i32* %2, align 4
  br label %26

25:                                               ; preds = %21
  store i32 0, i32* %2, align 4
  br label %26

26:                                               ; preds = %25, %24
  %27 = load i32, i32* %2, align 4
  ret i32 %27
}

; Function Attrs: noinline nounwind uwtable
define dso_local i32 @main() #0 {
  %1 = alloca i32, align 4
  %2 = alloca i32, align 4
  %3 = alloca i32, align 4
  %4 = alloca i64, align 8
  store i32 0, i32* %1, align 4
  %5 = call i32 (i8*, ...) @__isoc99_scanf(i8* getelementptr inbounds ([4 x i8], [4 x i8]* @.str, i64 0, i64 0), i64* %4)
  store i32 3, i32* %2, align 4
  br label %6

6:                                                ; preds = %32, %0
  %7 = load i32, i32* %2, align 4
  %8 = sext i32 %7 to i64
  %9 = load i64, i64* %4, align 8
  %10 = sdiv i64 %9, 2
  %11 = icmp sle i64 %8, %10
  br i1 %11, label %12, label %35

12:                                               ; preds = %6
  %13 = load i64, i64* %4, align 8
  %14 = load i32, i32* %2, align 4
  %15 = sext i32 %14 to i64
  %16 = sub nsw i64 %13, %15
  %17 = trunc i64 %16 to i32
  %18 = call i32 @IsPrime(i32 %17)
  %19 = icmp eq i32 %18, 1
  br i1 %19, label %20, label %31

20:                                               ; preds = %12
  %21 = load i32, i32* %2, align 4
  %22 = call i32 @IsPrime(i32 %21)
  %23 = icmp eq i32 %22, 1
  br i1 %23, label %24, label %31

24:                                               ; preds = %20
  %25 = load i32, i32* %2, align 4
  %26 = load i64, i64* %4, align 8
  %27 = load i32, i32* %2, align 4
  %28 = sext i32 %27 to i64
  %29 = sub nsw i64 %26, %28
  %30 = call i32 (i8*, ...) @printf(i8* getelementptr inbounds ([7 x i8], [7 x i8]* @.str.1, i64 0, i64 0), i32 %25, i64 %29)
  br label %31

31:                                               ; preds = %24, %20, %12
  br label %32

32:                                               ; preds = %31
  %33 = load i32, i32* %2, align 4
  %34 = add nsw i32 %33, 2
  store i32 %34, i32* %2, align 4
  br label %6

35:                                               ; preds = %6
  ret i32 0
}

declare dso_local i32 @__isoc99_scanf(i8*, ...) #1

declare dso_local i32 @printf(i8*, ...) #1


!llvm.module.flags = !{!0}
!llvm.ident = !{!1}

!0 = !{i32 1, !"wchar_size", i32 4}
!1 = !{!"clang version 10.0.0-4ubuntu1 "}
